; Function Attrs: mustprogress nounwind uwtable
define hidden noundef ptr @_ZNK19OpenColorIO_v2_4dev18FormatMetadataImpl17getAttributeValueEPKc(ptr nocapture noundef nonnull readonly align 8 dereferenceable(120) %this, ptr noundef %name) unnamed_addr #4 align 2 personality ptr @__gxx_personality_v0 {
entry:
  %tobool.not = icmp eq ptr %name, null
  br i1 %tobool.not, label %return, label %land.lhs.true

land.lhs.true:                                    ; preds = %entry
  %0 = load i8, ptr %name, align 1
  %tobool2.not = icmp eq i8 %0, 0
  br i1 %tobool2.not, label %return, label %if.then

if.then:                                          ; preds = %land.lhs.true
  %m_attributes = getelementptr inbounds i8, ptr %this, i64 72
  %1 = load ptr, ptr %m_attributes, align 8
  %_M_finish.i = getelementptr inbounds i8, ptr %this, i64 80
  %2 = load ptr, ptr %_M_finish.i, align 8
  %cmp.i.not9 = icmp eq ptr %1, %2
  br i1 %cmp.i.not9, label %return, label %for.body

for.body:                                         ; preds = %if.then, %for.inc
  %__begin2.sroa.0.010 = phi ptr [ %incdec.ptr.i, %for.inc ], [ %1, %if.then ]
  %call7 = tail call noundef ptr @_ZNKSt7__cxx1112basic_stringIcSt11char_traitsIcESaIcEE5c_strEv(ptr noundef nonnull align 8 dereferenceable(32) %__begin2.sroa.0.010) #17
  %call8 = invoke noundef i32 @_ZN19OpenColorIO_v2_4dev8Platform10StrcasecmpEPKcS2_(ptr noundef nonnull %name, ptr noundef %call7)
          to label %invoke.cont unwind label %terminate.lpad

invoke.cont:                                      ; preds = %for.body
  %cmp = icmp eq i32 %call8, 0
  br i1 %cmp, label %if.then9, label %for.inc

if.then9:                                         ; preds = %invoke.cont
  %second = getelementptr inbounds i8, ptr %__begin2.sroa.0.010, i64 32
  %call10 = tail call noundef ptr @_ZNKSt7__cxx1112basic_stringIcSt11char_traitsIcESaIcEE5c_strEv(ptr noundef nonnull align 8 dereferenceable(32) %second) #17
  br label %return

for.inc:                                          ; preds = %invoke.cont
  %incdec.ptr.i = getelementptr inbounds i8, ptr %__begin2.sroa.0.010, i64 64
  %cmp.i.not = icmp eq ptr %incdec.ptr.i, %2
  br i1 %cmp.i.not, label %return, label %for.body

return:                                           ; preds = %for.inc, %if.then, %entry, %land.lhs.true, %if.then9
  %retval.0 = phi ptr [ %call10, %if.then9 ], [ @.str.12, %land.lhs.true ], [ @.str.12, %entry ], [ @.str.12, %if.then ], [ @.str.12, %for.inc ]
  ret ptr %retval.0

terminate.lpad:                                   ; preds = %for.body
  %3 = landingpad { ptr, i32 }
          catch ptr null
  %4 = extractvalue { ptr, i32 } %3, 0
  tail call void @__clang_call_terminate(ptr %4) #21
  unreachable
}